Certificate:
    Data:
        Version: 3 (0x2)
        Serial Number:
            d3:ac:77:0e:b6:1f:4b:29:ca:7f:eb:33:d8:1c:f0:2f
        Signature Algorithm: ecdsa-with-SHA256
        Issuer: C=US, ST=NC, O=NetFoundry, CN=NetFoundry Ziti External API Root CA
        Validity
            Not Before: Nov 13 17:11:35 2019 GMT
            Not After : Nov 14 17:11:35 2019 GMT
        Subject: C=US, O=Some Org, CN=187e0bb4-b0b9-46f3-9a2c-ea5084c4700d
        Subject Public Key Info:
            Public Key Algorithm: rsaEncryption
                RSA Public-Key: (2048 bit)
                Modulus:
                    00:b2:5e:0c:7e:10:22:89:4a:dd:78:33:81:71:f6:
                    2a:67:53:41:3e:81:70:d3:20:51:a2:99:77:32:cb:
                    db:bb:f9:a6:29:dc:fa:54:ba:c7:ad:99:9a:3b:24:
                    6d:33:85:d7:4e:e8:3d:9a:b9:23:06:31:82:cb:ee:
                    c0:ea:3a:6c:34:f7:1f:fb:6f:f6:2d:f2:52:f2:a8:
                    c8:14:09:a7:6f:a1:db:dc:8c:83:35:c2:32:83:b5:
                    60:fb:99:e8:99:19:e8:89:11:43:59:12:2e:ef:34:
                    b4:73:4e:4a:b4:01:a4:d6:76:cf:d5:81:76:ac:b0:
                    68:25:26:b5:df:7f:5d:5a:bd:f9:60:5c:00:d4:5c:
                    66:d4:ac:bb:28:a8:b1:82:ca:4f:b2:ad:c9:8a:de:
                    0c:a4:84:ec:8d:e6:61:f1:96:0a:7c:f2:2d:3c:db:
                    58:bb:87:be:f1:de:f1:73:2d:80:62:21:76:ac:14:
                    bd:5e:a4:5c:08:ba:ad:f2:ff:00:ae:31:12:8d:e2:
                    a2:a1:c1:75:36:9b:e6:ef:dc:db:73:8d:b7:2c:57:
                    36:43:bb:a8:cb:d6:09:c5:95:b0:da:42:55:92:88:
                    3d:c7:71:c7:05:88:73:52:05:7c:7b:0d:e0:f8:7a:
                    c6:f0:c6:70:2a:42:b0:50:53:e3:eb:dc:a3:e4:c4:
                    68:63
                Exponent: 65537 (0x10001)
        X509v3 extensions:
            X509v3 Basic Constraints: 
                CA:FALSE
            Netscape Cert Type: 
                SSL Client, S/MIME
            Netscape Comment: 
                OpenSSL Generated Client Certificate
            X509v3 Subject Key Identifier: 
                D7:4F:E6:05:F9:86:C2:71:A0:3B:B2:2E:F9:A9:F0:68:4B:70:64:8F
            X509v3 Authority Key Identifier: 
                keyid:71:D4:E5:46:B9:CF:E3:76:5B:43:73:C6:01:B6:4C:3C:4D:BA:F8:7E

            X509v3 Key Usage: critical
                Digital Signature, Non Repudiation, Key Encipherment
            X509v3 Extended Key Usage: 
                TLS Web Client Authentication, E-mail Protection
    Signature Algorithm: ecdsa-with-SHA256
         30:65:02:30:46:93:d8:85:5b:29:0d:92:b7:64:6f:7e:6b:c8:
         5f:a0:0e:85:e5:7f:86:6a:c6:73:76:62:40:31:2e:8f:0b:a5:
         38:cf:67:65:96:7f:08:04:a2:1d:d6:e5:9e:98:fb:2b:02:31:
         00:a2:be:8e:40:b1:54:36:6c:08:cf:3f:21:e4:27:ec:97:45:
         40:01:78:c7:dd:67:6c:f1:8c:47:3f:0a:1c:05:ca:0b:a2:66:
         5c:cd:e0:9a:86:b6:89:17:f5:02:7e:54:dd
-----BEGIN CERTIFICATE-----
MIIDXTCCAuOgAwIBAgIRANOsdw62H0spyn/rM9gc8C8wCgYIKoZIzj0EAwIwXjEL
MAkGA1UEBhMCVVMxCzAJBgNVBAgMAk5DMRMwEQYDVQQKDApOZXRGb3VuZHJ5MS0w
KwYDVQQDDCROZXRGb3VuZHJ5IFppdGkgRXh0ZXJuYWwgQVBJIFJvb3QgQ0EwHhcN
MTkxMTEzMTcxMTM1WhcNMTkxMTE0MTcxMTM1WjBPMQswCQYDVQQGEwJVUzERMA8G
A1UECgwIU29tZSBPcmcxLTArBgNVBAMMJDE4N2UwYmI0LWIwYjktNDZmMy05YTJj
LWVhNTA4NGM0NzAwZDCCASIwDQYJKoZIhvcNAQEBBQADggEPADCCAQoCggEBALJe
DH4QIolK3XgzgXH2KmdTQT6BcNMgUaKZdzLL27v5pinc+lS6x62ZmjskbTOF107o
PZq5IwYxgsvuwOo6bDT3H/tv9i3yUvKoyBQJp2+h29yMgzXCMoO1YPuZ6JkZ6IkR
Q1kSLu80tHNOSrQBpNZ2z9WBdqywaCUmtd9/XVq9+WBcANRcZtSsuyiosYLKT7Kt
yYreDKSE7I3mYfGWCnzyLTzbWLuHvvHe8XMtgGIhdqwUvV6kXAi6rfL/AK4xEo3i
oqHBdTab5u/c23ONtyxXNkO7qMvWCcWVsNpCVZKIPcdxxwWIc1IFfHsN4Ph6xvDG
cCpCsFBT4+vco+TEaGMCAwEAAaOBxTCBwjAJBgNVHRMEAjAAMBEGCWCGSAGG+EIB
AQQEAwIFoDAzBglghkgBhvhCAQ0EJhYkT3BlblNTTCBHZW5lcmF0ZWQgQ2xpZW50
IENlcnRpZmljYXRlMB0GA1UdDgQWBBTXT+YF+YbCcaA7si75qfBoS3BkjzAfBgNV
HSMEGDAWgBRx1OVGuc/jdltDc8YBtkw8Tbr4fjAOBgNVHQ8BAf8EBAMCBeAwHQYD
VR0lBBYwFAYIKwYBBQUHAwIGCCsGAQUFBwMEMAoGCCqGSM49BAMCA2gAMGUCMEaT
2IVbKQ2St2RvfmvIX6AOheV/hmrGc3ZiQDEujwulOM9nZZZ/CASiHdblnpj7KwIx
AKK+jkCxVDZsCM8/IeQn7JdFQAF4x91nbPGMRz8KHAXKC6JmXM3gmoa2iRf1An5U
3Q==
-----END CERTIFICATE-----
